target datalayout = "e-m:e-p270:32:32-p271:32:32-p272:64:64-i64:64-i128:128-f80:128-n8:16:32:64-S128"
target triple = "x86_64-pc-linux-gnu"

%struct._object = type { %union.anon, ptr }
%union.anon = type { i64 }
%struct.PicklerObject = type { %struct._object, ptr, ptr, ptr, ptr, ptr, ptr, ptr, i64, i64, i32, i32, i32, i64, i64, i32, i32, i32, ptr, ptr }
%struct.PyMemoTable = type { i64, i64, i64, ptr }
%struct.PyMemoEntry = type { ptr, i64 }

; Function Attrs: inlinehint nounwind uwtable
define internal ptr @_Py_TYPE(ptr noundef %0) #3 {
  %2 = alloca ptr, align 8
  store ptr %0, ptr %2, align 8, !tbaa !3
  %3 = load ptr, ptr %2, align 8, !tbaa !3
  %4 = getelementptr inbounds nuw %struct._object, ptr %3, i32 0, i32 1
  %5 = load ptr, ptr %4, align 8, !tbaa !83
  ret ptr %5
}

; Function Attrs: nounwind uwtable
define internal i32 @Pickler_traverse(ptr noundef %0, ptr noundef %1, ptr noundef %2) #0 {
  %4 = alloca i32, align 4
  %5 = alloca ptr, align 8
  %6 = alloca ptr, align 8
  %7 = alloca ptr, align 8
  %8 = alloca i32, align 4
  %9 = alloca i32, align 4
  %10 = alloca i32, align 4
  %11 = alloca i32, align 4
  %12 = alloca i32, align 4
  %13 = alloca i32, align 4
  %14 = alloca i32, align 4
  %15 = alloca i32, align 4
  %16 = alloca ptr, align 8
  %17 = alloca i64, align 8
  %18 = alloca i32, align 4
  store ptr %0, ptr %5, align 8, !tbaa !38
  store ptr %1, ptr %6, align 8, !tbaa !8
  store ptr %2, ptr %7, align 8, !tbaa !8
  br label %19

19:                                               ; preds = %3
  %20 = load ptr, ptr %5, align 8, !tbaa !38
  %21 = call ptr @_Py_TYPE(ptr noundef %20)
  %22 = icmp ne ptr %21, null
  br i1 %22, label %23, label %37

23:                                               ; preds = %19
  call void @llvm.lifetime.start.p0(i64 4, ptr %8) #10
  %24 = load ptr, ptr %6, align 8, !tbaa !8
  %25 = load ptr, ptr %5, align 8, !tbaa !38
  %26 = call ptr @_Py_TYPE(ptr noundef %25)
  %27 = load ptr, ptr %7, align 8, !tbaa !8
  %28 = call i32 %24(ptr noundef %26, ptr noundef %27)
  store i32 %28, ptr %8, align 4, !tbaa !12
  %29 = load i32, ptr %8, align 4, !tbaa !12
  %30 = icmp ne i32 %29, 0
  br i1 %30, label %31, label %33

31:                                               ; preds = %23
  %32 = load i32, ptr %8, align 4, !tbaa !12
  store i32 %32, ptr %4, align 4
  store i32 1, ptr %9, align 4
  br label %34

33:                                               ; preds = %23
  store i32 0, ptr %9, align 4
  br label %34

34:                                               ; preds = %33, %31
  call void @llvm.lifetime.end.p0(i64 4, ptr %8) #10
  %35 = load i32, ptr %9, align 4
  switch i32 %35, label %229 [
    i32 0, label %36
    i32 1, label %227
  ]

36:                                               ; preds = %34
  br label %37

37:                                               ; preds = %36, %19
  br label %38

38:                                               ; preds = %37
  br label %39

39:                                               ; preds = %38
  %40 = load ptr, ptr %5, align 8, !tbaa !38
  %41 = getelementptr inbounds nuw %struct.PicklerObject, ptr %40, i32 0, i32 6
  %42 = load ptr, ptr %41, align 8, !tbaa !49
  %43 = icmp ne ptr %42, null
  br i1 %43, label %44, label %59

44:                                               ; preds = %39
  call void @llvm.lifetime.start.p0(i64 4, ptr %10) #10
  %45 = load ptr, ptr %6, align 8, !tbaa !8
  %46 = load ptr, ptr %5, align 8, !tbaa !38
  %47 = getelementptr inbounds nuw %struct.PicklerObject, ptr %46, i32 0, i32 6
  %48 = load ptr, ptr %47, align 8, !tbaa !49
  %49 = load ptr, ptr %7, align 8, !tbaa !8
  %50 = call i32 %45(ptr noundef %48, ptr noundef %49)
  store i32 %50, ptr %10, align 4, !tbaa !12
  %51 = load i32, ptr %10, align 4, !tbaa !12
  %52 = icmp ne i32 %51, 0
  br i1 %52, label %53, label %55

53:                                               ; preds = %44
  %54 = load i32, ptr %10, align 4, !tbaa !12
  store i32 %54, ptr %4, align 4
  store i32 1, ptr %9, align 4
  br label %56

55:                                               ; preds = %44
  store i32 0, ptr %9, align 4
  br label %56

56:                                               ; preds = %55, %53
  call void @llvm.lifetime.end.p0(i64 4, ptr %10) #10
  %57 = load i32, ptr %9, align 4
  switch i32 %57, label %229 [
    i32 0, label %58
    i32 1, label %227
  ]

58:                                               ; preds = %56
  br label %59

59:                                               ; preds = %58, %39
  br label %60

60:                                               ; preds = %59
  br label %61

61:                                               ; preds = %60
  %62 = load ptr, ptr %5, align 8, !tbaa !38
  %63 = getelementptr inbounds nuw %struct.PicklerObject, ptr %62, i32 0, i32 2
  %64 = load ptr, ptr %63, align 8, !tbaa !45
  %65 = icmp ne ptr %64, null
  br i1 %65, label %66, label %81

66:                                               ; preds = %61
  call void @llvm.lifetime.start.p0(i64 4, ptr %11) #10
  %67 = load ptr, ptr %6, align 8, !tbaa !8
  %68 = load ptr, ptr %5, align 8, !tbaa !38
  %69 = getelementptr inbounds nuw %struct.PicklerObject, ptr %68, i32 0, i32 2
  %70 = load ptr, ptr %69, align 8, !tbaa !45
  %71 = load ptr, ptr %7, align 8, !tbaa !8
  %72 = call i32 %67(ptr noundef %70, ptr noundef %71)
  store i32 %72, ptr %11, align 4, !tbaa !12
  %73 = load i32, ptr %11, align 4, !tbaa !12
  %74 = icmp ne i32 %73, 0
  br i1 %74, label %75, label %77

75:                                               ; preds = %66
  %76 = load i32, ptr %11, align 4, !tbaa !12
  store i32 %76, ptr %4, align 4
  store i32 1, ptr %9, align 4
  br label %78

77:                                               ; preds = %66
  store i32 0, ptr %9, align 4
  br label %78

78:                                               ; preds = %77, %75
  call void @llvm.lifetime.end.p0(i64 4, ptr %11) #10
  %79 = load i32, ptr %9, align 4
  switch i32 %79, label %229 [
    i32 0, label %80
    i32 1, label %227
  ]

80:                                               ; preds = %78
  br label %81

81:                                               ; preds = %80, %61
  br label %82

82:                                               ; preds = %81
  br label %83

83:                                               ; preds = %82
  %84 = load ptr, ptr %5, align 8, !tbaa !38
  %85 = getelementptr inbounds nuw %struct.PicklerObject, ptr %84, i32 0, i32 4
  %86 = load ptr, ptr %85, align 8, !tbaa !47
  %87 = icmp ne ptr %86, null
  br i1 %87, label %88, label %103

88:                                               ; preds = %83
  call void @llvm.lifetime.start.p0(i64 4, ptr %12) #10
  %89 = load ptr, ptr %6, align 8, !tbaa !8
  %90 = load ptr, ptr %5, align 8, !tbaa !38
  %91 = getelementptr inbounds nuw %struct.PicklerObject, ptr %90, i32 0, i32 4
  %92 = load ptr, ptr %91, align 8, !tbaa !47
  %93 = load ptr, ptr %7, align 8, !tbaa !8
  %94 = call i32 %89(ptr noundef %92, ptr noundef %93)
  store i32 %94, ptr %12, align 4, !tbaa !12
  %95 = load i32, ptr %12, align 4, !tbaa !12
  %96 = icmp ne i32 %95, 0
  br i1 %96, label %97, label %99

97:                                               ; preds = %88
  %98 = load i32, ptr %12, align 4, !tbaa !12
  store i32 %98, ptr %4, align 4
  store i32 1, ptr %9, align 4
  br label %100

99:                                               ; preds = %88
  store i32 0, ptr %9, align 4
  br label %100

100:                                              ; preds = %99, %97
  call void @llvm.lifetime.end.p0(i64 4, ptr %12) #10
  %101 = load i32, ptr %9, align 4
  switch i32 %101, label %229 [
    i32 0, label %102
    i32 1, label %227
  ]

102:                                              ; preds = %100
  br label %103

103:                                              ; preds = %102, %83
  br label %104

104:                                              ; preds = %103
  br label %105

105:                                              ; preds = %104
  %106 = load ptr, ptr %5, align 8, !tbaa !38
  %107 = getelementptr inbounds nuw %struct.PicklerObject, ptr %106, i32 0, i32 18
  %108 = load ptr, ptr %107, align 8, !tbaa !61
  %109 = icmp ne ptr %108, null
  br i1 %109, label %110, label %125

110:                                              ; preds = %105
  call void @llvm.lifetime.start.p0(i64 4, ptr %13) #10
  %111 = load ptr, ptr %6, align 8, !tbaa !8
  %112 = load ptr, ptr %5, align 8, !tbaa !38
  %113 = getelementptr inbounds nuw %struct.PicklerObject, ptr %112, i32 0, i32 18
  %114 = load ptr, ptr %113, align 8, !tbaa !61
  %115 = load ptr, ptr %7, align 8, !tbaa !8
  %116 = call i32 %111(ptr noundef %114, ptr noundef %115)
  store i32 %116, ptr %13, align 4, !tbaa !12
  %117 = load i32, ptr %13, align 4, !tbaa !12
  %118 = icmp ne i32 %117, 0
  br i1 %118, label %119, label %121

119:                                              ; preds = %110
  %120 = load i32, ptr %13, align 4, !tbaa !12
  store i32 %120, ptr %4, align 4
  store i32 1, ptr %9, align 4
  br label %122

121:                                              ; preds = %110
  store i32 0, ptr %9, align 4
  br label %122

122:                                              ; preds = %121, %119
  call void @llvm.lifetime.end.p0(i64 4, ptr %13) #10
  %123 = load i32, ptr %9, align 4
  switch i32 %123, label %229 [
    i32 0, label %124
    i32 1, label %227
  ]

124:                                              ; preds = %122
  br label %125

125:                                              ; preds = %124, %105
  br label %126

126:                                              ; preds = %125
  br label %127

127:                                              ; preds = %126
  %128 = load ptr, ptr %5, align 8, !tbaa !38
  %129 = getelementptr inbounds nuw %struct.PicklerObject, ptr %128, i32 0, i32 5
  %130 = load ptr, ptr %129, align 8, !tbaa !48
  %131 = icmp ne ptr %130, null
  br i1 %131, label %132, label %147

132:                                              ; preds = %127
  call void @llvm.lifetime.start.p0(i64 4, ptr %14) #10
  %133 = load ptr, ptr %6, align 8, !tbaa !8
  %134 = load ptr, ptr %5, align 8, !tbaa !38
  %135 = getelementptr inbounds nuw %struct.PicklerObject, ptr %134, i32 0, i32 5
  %136 = load ptr, ptr %135, align 8, !tbaa !48
  %137 = load ptr, ptr %7, align 8, !tbaa !8
  %138 = call i32 %133(ptr noundef %136, ptr noundef %137)
  store i32 %138, ptr %14, align 4, !tbaa !12
  %139 = load i32, ptr %14, align 4, !tbaa !12
  %140 = icmp ne i32 %139, 0
  br i1 %140, label %141, label %143

141:                                              ; preds = %132
  %142 = load i32, ptr %14, align 4, !tbaa !12
  store i32 %142, ptr %4, align 4
  store i32 1, ptr %9, align 4
  br label %144

143:                                              ; preds = %132
  store i32 0, ptr %9, align 4
  br label %144

144:                                              ; preds = %143, %141
  call void @llvm.lifetime.end.p0(i64 4, ptr %14) #10
  %145 = load i32, ptr %9, align 4
  switch i32 %145, label %229 [
    i32 0, label %146
    i32 1, label %227
  ]

146:                                              ; preds = %144
  br label %147

147:                                              ; preds = %146, %127
  br label %148

148:                                              ; preds = %147
  br label %149

149:                                              ; preds = %148
  %150 = load ptr, ptr %5, align 8, !tbaa !38
  %151 = getelementptr inbounds nuw %struct.PicklerObject, ptr %150, i32 0, i32 19
  %152 = load ptr, ptr %151, align 8, !tbaa !62
  %153 = icmp ne ptr %152, null
  br i1 %153, label %154, label %169

154:                                              ; preds = %149
  call void @llvm.lifetime.start.p0(i64 4, ptr %15) #10
  %155 = load ptr, ptr %6, align 8, !tbaa !8
  %156 = load ptr, ptr %5, align 8, !tbaa !38
  %157 = getelementptr inbounds nuw %struct.PicklerObject, ptr %156, i32 0, i32 19
  %158 = load ptr, ptr %157, align 8, !tbaa !62
  %159 = load ptr, ptr %7, align 8, !tbaa !8
  %160 = call i32 %155(ptr noundef %158, ptr noundef %159)
  store i32 %160, ptr %15, align 4, !tbaa !12
  %161 = load i32, ptr %15, align 4, !tbaa !12
  %162 = icmp ne i32 %161, 0
  br i1 %162, label %163, label %165

163:                                              ; preds = %154
  %164 = load i32, ptr %15, align 4, !tbaa !12
  store i32 %164, ptr %4, align 4
  store i32 1, ptr %9, align 4
  br label %166

165:                                              ; preds = %154
  store i32 0, ptr %9, align 4
  br label %166

166:                                              ; preds = %165, %163
  call void @llvm.lifetime.end.p0(i64 4, ptr %15) #10
  %167 = load i32, ptr %9, align 4
  switch i32 %167, label %229 [
    i32 0, label %168
    i32 1, label %227
  ]

168:                                              ; preds = %166
  br label %169

169:                                              ; preds = %168, %149
  br label %170

170:                                              ; preds = %169
  call void @llvm.lifetime.start.p0(i64 8, ptr %16) #10
  %171 = load ptr, ptr %5, align 8, !tbaa !38
  %172 = getelementptr inbounds nuw %struct.PicklerObject, ptr %171, i32 0, i32 1
  %173 = load ptr, ptr %172, align 8, !tbaa !43
  store ptr %173, ptr %16, align 8, !tbaa !8
  %174 = load ptr, ptr %16, align 8, !tbaa !8
  %175 = icmp ne ptr %174, null
  br i1 %175, label %176, label %225

176:                                              ; preds = %170
  %177 = load ptr, ptr %16, align 8, !tbaa !8
  %178 = getelementptr inbounds nuw %struct.PyMemoTable, ptr %177, i32 0, i32 3
  %179 = load ptr, ptr %178, align 8, !tbaa !71
  %180 = icmp ne ptr %179, null
  br i1 %180, label %181, label %225

181:                                              ; preds = %176
  call void @llvm.lifetime.start.p0(i64 8, ptr %17) #10
  %182 = load ptr, ptr %16, align 8, !tbaa !8
  %183 = getelementptr inbounds nuw %struct.PyMemoTable, ptr %182, i32 0, i32 2
  %184 = load i64, ptr %183, align 8, !tbaa !69
  store i64 %184, ptr %17, align 8, !tbaa !34
  br label %185

185:                                              ; preds = %220, %181
  %186 = load i64, ptr %17, align 8, !tbaa !34
  %187 = add i64 %186, -1
  store i64 %187, ptr %17, align 8, !tbaa !34
  %188 = icmp sge i64 %187, 0
  br i1 %188, label %189, label %221

189:                                              ; preds = %185
  br label %190

190:                                              ; preds = %189
  %191 = load ptr, ptr %16, align 8, !tbaa !8
  %192 = getelementptr inbounds nuw %struct.PyMemoTable, ptr %191, i32 0, i32 3
  %193 = load ptr, ptr %192, align 8, !tbaa !71
  %194 = load i64, ptr %17, align 8, !tbaa !34
  %195 = getelementptr %struct.PyMemoEntry, ptr %193, i64 %194
  %196 = getelementptr inbounds nuw %struct.PyMemoEntry, ptr %195, i32 0, i32 0
  %197 = load ptr, ptr %196, align 8, !tbaa !87
  %198 = icmp ne ptr %197, null
  br i1 %198, label %199, label %218

199:                                              ; preds = %190
  call void @llvm.lifetime.start.p0(i64 4, ptr %18) #10
  %200 = load ptr, ptr %6, align 8, !tbaa !8
  %201 = load ptr, ptr %16, align 8, !tbaa !8
  %202 = getelementptr inbounds nuw %struct.PyMemoTable, ptr %201, i32 0, i32 3
  %203 = load ptr, ptr %202, align 8, !tbaa !71
  %204 = load i64, ptr %17, align 8, !tbaa !34
  %205 = getelementptr %struct.PyMemoEntry, ptr %203, i64 %204
  %206 = getelementptr inbounds nuw %struct.PyMemoEntry, ptr %205, i32 0, i32 0
  %207 = load ptr, ptr %206, align 8, !tbaa !87
  %208 = load ptr, ptr %7, align 8, !tbaa !8
  %209 = call i32 %200(ptr noundef %207, ptr noundef %208)
  store i32 %209, ptr %18, align 4, !tbaa !12
  %210 = load i32, ptr %18, align 4, !tbaa !12
  %211 = icmp ne i32 %210, 0
  br i1 %211, label %212, label %214

212:                                              ; preds = %199
  %213 = load i32, ptr %18, align 4, !tbaa !12
  store i32 %213, ptr %4, align 4
  store i32 1, ptr %9, align 4
  br label %215

214:                                              ; preds = %199
  store i32 0, ptr %9, align 4
  br label %215

215:                                              ; preds = %214, %212
  call void @llvm.lifetime.end.p0(i64 4, ptr %18) #10
  %216 = load i32, ptr %9, align 4
  switch i32 %216, label %222 [
    i32 0, label %217
  ]

217:                                              ; preds = %215
  br label %218

218:                                              ; preds = %217, %190
  br label %219

219:                                              ; preds = %218
  br label %220

220:                                              ; preds = %219
  br label %185, !llvm.loop !223

221:                                              ; preds = %185
  store i32 0, ptr %9, align 4
  br label %222

222:                                              ; preds = %221, %215
  call void @llvm.lifetime.end.p0(i64 8, ptr %17) #10
  %223 = load i32, ptr %9, align 4
  switch i32 %223, label %226 [
    i32 0, label %224
  ]

224:                                              ; preds = %222
  br label %225

225:                                              ; preds = %224, %176, %170
  store i32 0, ptr %4, align 4
  store i32 1, ptr %9, align 4
  br label %226

226:                                              ; preds = %225, %222
  call void @llvm.lifetime.end.p0(i64 8, ptr %16) #10
  br label %227

227:                                              ; preds = %226, %166, %144, %122, %100, %78, %56, %34
  %228 = load i32, ptr %4, align 4
  ret i32 %228

229:                                              ; preds = %166, %144, %122, %100, %78, %56, %34
  unreachable
}