; Function Attrs: nounwind uwtable
define internal i32 @Pickler_traverse(ptr noundef readonly captures(none) %0, ptr noundef readonly captures(none) %1, ptr noundef %2) #0 {
  %4 = getelementptr i8, ptr %0, i64 8
  %.val119 = load ptr, ptr %4, align 8, !tbaa !50
  %.not = icmp eq ptr %.val119, null
  br i1 %.not, label %7, label %5

5:                                                ; preds = %3
  %6 = tail call i32 %1(ptr noundef nonnull %.val119, ptr noundef %2) #13
  %.not90.not = icmp eq i32 %6, 0
  br i1 %.not90.not, label %7, label %.thread

7:                                                ; preds = %5, %3
  %8 = getelementptr inbounds nuw i8, ptr %0, i64 56
  %9 = load ptr, ptr %8, align 8, !tbaa !41
  %.not91 = icmp eq ptr %9, null
  br i1 %.not91, label %12, label %10

10:                                               ; preds = %7
  %11 = tail call i32 %1(ptr noundef nonnull %9, ptr noundef %2) #13
  %.not92.not = icmp eq i32 %11, 0
  br i1 %.not92.not, label %12, label %.thread

12:                                               ; preds = %10, %7
  %13 = getelementptr inbounds nuw i8, ptr %0, i64 24
  %14 = load ptr, ptr %13, align 8, !tbaa !87
  %.not93 = icmp eq ptr %14, null
  br i1 %.not93, label %17, label %15

15:                                               ; preds = %12
  %16 = tail call i32 %1(ptr noundef nonnull %14, ptr noundef %2) #13
  %.not94.not = icmp eq i32 %16, 0
  br i1 %.not94.not, label %17, label %.thread

17:                                               ; preds = %15, %12
  %18 = getelementptr inbounds nuw i8, ptr %0, i64 40
  %19 = load ptr, ptr %18, align 8, !tbaa !99
  %.not95 = icmp eq ptr %19, null
  br i1 %.not95, label %22, label %20

20:                                               ; preds = %17
  %21 = tail call i32 %1(ptr noundef nonnull %19, ptr noundef %2) #13
  %.not96.not = icmp eq i32 %21, 0
  br i1 %.not96.not, label %22, label %.thread

22:                                               ; preds = %20, %17
  %23 = getelementptr inbounds nuw i8, ptr %0, i64 136
  %24 = load ptr, ptr %23, align 8, !tbaa !122
  %.not97 = icmp eq ptr %24, null
  br i1 %.not97, label %27, label %25

25:                                               ; preds = %22
  %26 = tail call i32 %1(ptr noundef nonnull %24, ptr noundef %2) #13
  %.not98.not = icmp eq i32 %26, 0
  br i1 %.not98.not, label %27, label %.thread

27:                                               ; preds = %25, %22
  %28 = getelementptr inbounds nuw i8, ptr %0, i64 48
  %29 = load ptr, ptr %28, align 8, !tbaa !98
  %.not99 = icmp eq ptr %29, null
  br i1 %.not99, label %32, label %30

30:                                               ; preds = %27
  %31 = tail call i32 %1(ptr noundef nonnull %29, ptr noundef %2) #13
  %.not100.not = icmp eq i32 %31, 0
  br i1 %.not100.not, label %32, label %.thread

32:                                               ; preds = %30, %27
  %33 = getelementptr inbounds nuw i8, ptr %0, i64 144
  %34 = load ptr, ptr %33, align 8, !tbaa !43
  %.not101 = icmp eq ptr %34, null
  br i1 %.not101, label %37, label %35

35:                                               ; preds = %32
  %36 = tail call i32 %1(ptr noundef nonnull %34, ptr noundef %2) #13
  %.not102.not = icmp eq i32 %36, 0
  br i1 %.not102.not, label %37, label %.thread

37:                                               ; preds = %35, %32
  %38 = getelementptr inbounds nuw i8, ptr %0, i64 16
  %39 = load ptr, ptr %38, align 8, !tbaa !78
  %.not103 = icmp eq ptr %39, null
  br i1 %.not103, label %.thread, label %40

40:                                               ; preds = %37
  %41 = getelementptr inbounds nuw i8, ptr %39, i64 24
  %42 = load ptr, ptr %41, align 8, !tbaa !77
  %.not104 = icmp eq ptr %42, null
  br i1 %.not104, label %.thread, label %43

43:                                               ; preds = %40
  %44 = getelementptr inbounds nuw i8, ptr %39, i64 16
  %45 = load i64, ptr %44, align 8, !tbaa !75
  %46 = add i64 %45, -1
  %47 = icmp slt i64 %46, 0
  br i1 %47, label %.thread, label %.lr.ph

.lr.ph:                                           ; preds = %43, %54
  %48 = phi i64 [ %55, %54 ], [ %46, %43 ]
  %49 = load ptr, ptr %41, align 8, !tbaa !77
  %50 = getelementptr %struct.PyMemoEntry, ptr %49, i64 %48
  %51 = load ptr, ptr %50, align 8, !tbaa !96
  %.not105 = icmp eq ptr %51, null
  br i1 %.not105, label %54, label %52

52:                                               ; preds = %.lr.ph
  %53 = tail call i32 %1(ptr noundef nonnull %51, ptr noundef %2) #13
  %.not106 = icmp eq i32 %53, 0
  br i1 %.not106, label %54, label %.thread

54:                                               ; preds = %52, %.lr.ph
  %55 = add nsw i64 %48, -1
  %56 = icmp slt i64 %48, 1
  br i1 %56, label %.thread, label %.lr.ph, !llvm.loop !203

.thread:                                          ; preds = %52, %54, %43, %37, %40, %35, %30, %25, %20, %15, %10, %5
  %.1 = phi i32 [ %6, %5 ], [ %11, %10 ], [ %16, %15 ], [ %21, %20 ], [ %26, %25 ], [ %31, %30 ], [ %36, %35 ], [ 0, %40 ], [ 0, %37 ], [ 0, %43 ], [ %53, %52 ], [ 0, %54 ]
  ret i32 %.1
}